target datalayout = "e-m:e-p270:32:32-p271:32:32-p272:64:64-i64:64-i128:128-f80:128-n8:16:32:64-S128"
target triple = "x86_64-pc-linux-gnu"

%"class.icu_77::number::impl::DecimalQuantity" = type <{ %"class.icu_77::IFixedDecimal", i8, [3 x i8], i32, i32, i8, i8, [2 x i8], double, i32, i32, i32, i32, %union.anon, i8, i8, [6 x i8] }>
%"class.icu_77::IFixedDecimal" = type { ptr }
%union.anon = type { %struct.anon }
%struct.anon = type { ptr, i32 }

@_ZN12_GLOBAL__N_113NEGATIVE_FLAGE = internal global i8 1, align 1

; Function Attrs: mustprogress uwtable
define void @_ZN6icu_776number4impl15DecimalQuantity12setBcdToZeroEv(ptr noundef nonnull align 8 dereferenceable(66) %0) #1 align 2 {
  %2 = alloca ptr, align 8
  store ptr %0, ptr %2, align 8, !tbaa !25
  %3 = load ptr, ptr %2, align 8
  %4 = getelementptr inbounds nuw %"class.icu_77::number::impl::DecimalQuantity", ptr %3, i32 0, i32 14
  %5 = load i8, ptr %4, align 8, !tbaa !37, !range !40, !noundef !41
  %6 = trunc i8 %5 to i1
  br i1 %6, label %7, label %14

7:                                                ; preds = %1
  %8 = getelementptr inbounds nuw %"class.icu_77::number::impl::DecimalQuantity", ptr %3, i32 0, i32 13
  %9 = getelementptr inbounds nuw %struct.anon, ptr %8, i32 0, i32 0
  %10 = load ptr, ptr %9, align 8, !tbaa !42
  call void @uprv_free_77(ptr noundef %10)
  %11 = getelementptr inbounds nuw %"class.icu_77::number::impl::DecimalQuantity", ptr %3, i32 0, i32 13
  %12 = getelementptr inbounds nuw %struct.anon, ptr %11, i32 0, i32 0
  store ptr null, ptr %12, align 8, !tbaa !42
  %13 = getelementptr inbounds nuw %"class.icu_77::number::impl::DecimalQuantity", ptr %3, i32 0, i32 14
  store i8 0, ptr %13, align 8, !tbaa !37
  br label %14

14:                                               ; preds = %7, %1
  %15 = getelementptr inbounds nuw %"class.icu_77::number::impl::DecimalQuantity", ptr %3, i32 0, i32 13
  store i64 0, ptr %15, align 8, !tbaa !42
  %16 = getelementptr inbounds nuw %"class.icu_77::number::impl::DecimalQuantity", ptr %3, i32 0, i32 3
  store i32 0, ptr %16, align 4, !tbaa !43
  %17 = getelementptr inbounds nuw %"class.icu_77::number::impl::DecimalQuantity", ptr %3, i32 0, i32 4
  store i32 0, ptr %17, align 8, !tbaa !44
  %18 = getelementptr inbounds nuw %"class.icu_77::number::impl::DecimalQuantity", ptr %3, i32 0, i32 6
  store i8 0, ptr %18, align 1, !tbaa !45
  %19 = getelementptr inbounds nuw %"class.icu_77::number::impl::DecimalQuantity", ptr %3, i32 0, i32 8
  store double 0.000000e+00, ptr %19, align 8, !tbaa !46
  %20 = getelementptr inbounds nuw %"class.icu_77::number::impl::DecimalQuantity", ptr %3, i32 0, i32 9
  store i32 0, ptr %20, align 8, !tbaa !47
  %21 = getelementptr inbounds nuw %"class.icu_77::number::impl::DecimalQuantity", ptr %3, i32 0, i32 12
  store i32 0, ptr %21, align 4, !tbaa !36
  ret void
}

; Function Attrs: mustprogress uwtable
define noundef nonnull align 8 dereferenceable(66) ptr @_ZN6icu_776number4impl15DecimalQuantity9setToLongEl(ptr noundef nonnull align 8 dereferenceable(66) %0, i64 noundef %1) #1 align 2 {
  %3 = alloca ptr, align 8
  %4 = alloca i64, align 8
  store ptr %0, ptr %3, align 8, !tbaa !25
  store i64 %1, ptr %4, align 8, !tbaa !18
  %5 = load ptr, ptr %3, align 8
  call void @_ZN6icu_776number4impl15DecimalQuantity12setBcdToZeroEv(ptr noundef nonnull align 8 dereferenceable(66) %5)
  %6 = getelementptr inbounds nuw %"class.icu_77::number::impl::DecimalQuantity", ptr %5, i32 0, i32 5
  store i8 0, ptr %6, align 4, !tbaa !39
  %7 = load i64, ptr %4, align 8, !tbaa !18
  %8 = icmp slt i64 %7, 0
  br i1 %8, label %9, label %22

9:                                                ; preds = %2
  %10 = load i64, ptr %4, align 8, !tbaa !18
  %11 = icmp sgt i64 %10, -9223372036854775808
  br i1 %11, label %12, label %22

12:                                               ; preds = %9
  %13 = load i8, ptr @_ZN12_GLOBAL__N_113NEGATIVE_FLAGE, align 1, !tbaa !42
  %14 = sext i8 %13 to i32
  %15 = getelementptr inbounds nuw %"class.icu_77::number::impl::DecimalQuantity", ptr %5, i32 0, i32 5
  %16 = load i8, ptr %15, align 4, !tbaa !39
  %17 = sext i8 %16 to i32
  %18 = or i32 %17, %14
  %19 = trunc i32 %18 to i8
  store i8 %19, ptr %15, align 4, !tbaa !39
  %20 = load i64, ptr %4, align 8, !tbaa !18
  %21 = sub nsw i64 0, %20
  store i64 %21, ptr %4, align 8, !tbaa !18
  br label %22

22:                                               ; preds = %12, %9, %2
  %23 = load i64, ptr %4, align 8, !tbaa !18
  %24 = icmp ne i64 %23, 0
  br i1 %24, label %25, label %27

25:                                               ; preds = %22
  %26 = load i64, ptr %4, align 8, !tbaa !18
  call void @_ZN6icu_776number4impl15DecimalQuantity10_setToLongEl(ptr noundef nonnull align 8 dereferenceable(66) %5, i64 noundef %26)
  call void @_ZN6icu_776number4impl15DecimalQuantity7compactEv(ptr noundef nonnull align 8 dereferenceable(66) %5)
  br label %27

27:                                               ; preds = %25, %22
  ret ptr %5
}