; Function Attrs: mustprogress uwtable
define noundef nonnull align 8 dereferenceable(66) ptr @_ZN6icu_776number4impl15DecimalQuantity9setToLongEl(ptr noundef nonnull returned align 8 dereferenceable(66) initializes((12, 22), (24, 36), (44, 48)) %0, i64 noundef %1) local_unnamed_addr #1 align 2 {
  %3 = getelementptr inbounds nuw i8, ptr %0, i64 64
  %4 = load i8, ptr %3, align 8, !tbaa !22, !range !24, !noundef !25
  %5 = trunc nuw i8 %4 to i1
  br i1 %5, label %6, label %_ZN6icu_776number4impl15DecimalQuantity12setBcdToZeroEv.exit

6:                                                ; preds = %2
  %7 = getelementptr inbounds nuw i8, ptr %0, i64 48
  %8 = load ptr, ptr %7, align 8, !tbaa !26
  tail call void @uprv_free_77(ptr noundef %8)
  store i8 0, ptr %3, align 8, !tbaa !22
  br label %_ZN6icu_776number4impl15DecimalQuantity12setBcdToZeroEv.exit

_ZN6icu_776number4impl15DecimalQuantity12setBcdToZeroEv.exit: ; preds = %2, %6
  %9 = getelementptr inbounds nuw i8, ptr %0, i64 48
  store i64 0, ptr %9, align 8, !tbaa !26
  %10 = getelementptr inbounds nuw i8, ptr %0, i64 12
  %11 = getelementptr inbounds nuw i8, ptr %0, i64 24
  store double 0.000000e+00, ptr %11, align 8, !tbaa !30
  %12 = getelementptr inbounds nuw i8, ptr %0, i64 32
  store i32 0, ptr %12, align 8, !tbaa !31
  %13 = getelementptr inbounds nuw i8, ptr %0, i64 44
  store i32 0, ptr %13, align 4, !tbaa !32
  %or.cond = icmp ugt i64 %1, -9223372036854775808
  tail call void @llvm.memset.p0.i64(ptr noundef nonnull align 4 dereferenceable(10) %10, i8 0, i64 10, i1 false)
  br i1 %or.cond, label %.thread, label %16

.thread:                                          ; preds = %_ZN6icu_776number4impl15DecimalQuantity12setBcdToZeroEv.exit
  %14 = getelementptr inbounds nuw i8, ptr %0, i64 20
  store i8 1, ptr %14, align 4, !tbaa !35
  %15 = sub nsw i64 0, %1
  br label %17

16:                                               ; preds = %_ZN6icu_776number4impl15DecimalQuantity12setBcdToZeroEv.exit
  %.not = icmp eq i64 %1, 0
  br i1 %.not, label %18, label %17

17:                                               ; preds = %.thread, %16
  %.09 = phi i64 [ %15, %.thread ], [ %1, %16 ]
  tail call void @_ZN6icu_776number4impl15DecimalQuantity10_setToLongEl(ptr noundef nonnull align 8 dereferenceable(66) %0, i64 noundef %.09)
  tail call void @_ZN6icu_776number4impl15DecimalQuantity7compactEv(ptr noundef nonnull align 8 dereferenceable(66) %0)
  br label %18

18:                                               ; preds = %17, %16
  ret ptr %0
}